; ModuleID = 'source-C-CXX/61/378.c'
source_filename = "source-C-CXX/61/378.c"
target datalayout = "e-m:e-p270:32:32-p271:32:32-p272:64:64-i64:64-f80:128-n8:16:32:64-S128"
target triple = "x86_64-pc-linux-gnu"

; Function Attrs: nounwind sspstrong uwtable
define dso_local i32 @main() local_unnamed_addr #0 {
  %1 = alloca [200 x i8], align 16
  %2 = alloca [200 x i8], align 16
  %3 = getelementptr inbounds [200 x i8], [200 x i8]* %1, i64 0, i64 0
  call void @llvm.lifetime.start.p0i8(i64 200, i8* nonnull %3) #4
  %4 = getelementptr inbounds [200 x i8], [200 x i8]* %2, i64 0, i64 0
  call void @llvm.lifetime.start.p0i8(i64 200, i8* nonnull %4) #4
  %5 = call i32 (i8*, ...) bitcast (i32 (...)* @gets to i32 (i8*, ...)*)(i8* nonnull %3) #4
  %6 = load i8, i8* %3, align 16, !tbaa !5
  store i8 %6, i8* %4, align 16, !tbaa !5
  %7 = getelementptr inbounds [200 x i8], [200 x i8]* %1, i64 0, i64 1
  %8 = load i8, i8* %7, align 1, !tbaa !5
  %9 = icmp eq i8 %8, 0
  br i1 %9, label %32, label %10

10:                                               ; preds = %0, %29
  %11 = phi i8 [ %31, %29 ], [ %6, %0 ]
  %12 = phi i64 [ %24, %29 ], [ 1, %0 ]
  %13 = phi i8 [ %27, %29 ], [ %8, %0 ]
  %14 = phi i32 [ %23, %29 ], [ 1, %0 ]
  %15 = icmp eq i8 %11, 32
  %16 = icmp eq i8 %13, 32
  %17 = select i1 %15, i1 %16, i1 false
  br i1 %17, label %22, label %18

18:                                               ; preds = %10
  %19 = sext i32 %14 to i64
  %20 = getelementptr inbounds [200 x i8], [200 x i8]* %2, i64 0, i64 %19
  store i8 %13, i8* %20, align 1, !tbaa !5
  %21 = add nsw i32 %14, 1
  br label %22

22:                                               ; preds = %10, %18
  %23 = phi i32 [ %21, %18 ], [ %14, %10 ]
  %24 = add nuw i64 %12, 1
  %25 = and i64 %24, 4294967295
  %26 = getelementptr inbounds [200 x i8], [200 x i8]* %1, i64 0, i64 %25
  %27 = load i8, i8* %26, align 1, !tbaa !5
  %28 = icmp eq i8 %27, 0
  br i1 %28, label %32, label %29, !llvm.loop !8

29:                                               ; preds = %22
  %30 = getelementptr inbounds [200 x i8], [200 x i8]* %1, i64 0, i64 %12
  %31 = load i8, i8* %30, align 1, !tbaa !5
  br label %10

32:                                               ; preds = %22, %0
  %33 = phi i32 [ 1, %0 ], [ %23, %22 ]
  %34 = sext i32 %33 to i64
  %35 = getelementptr inbounds [200 x i8], [200 x i8]* %2, i64 0, i64 %34
  store i8 0, i8* %35, align 1, !tbaa !5
  %36 = call i32 @puts(i8* nonnull %4)
  call void @llvm.lifetime.end.p0i8(i64 200, i8* nonnull %4) #4
  call void @llvm.lifetime.end.p0i8(i64 200, i8* nonnull %3) #4
  ret i32 0
}

; Function Attrs: argmemonly mustprogress nofree nosync nounwind willreturn
declare void @llvm.lifetime.start.p0i8(i64 immarg, i8* nocapture) #1

declare i32 @gets(...) local_unnamed_addr #2

; Function Attrs: nofree nounwind
declare noundef i32 @puts(i8* nocapture noundef readonly) local_unnamed_addr #3

; Function Attrs: argmemonly mustprogress nofree nosync nounwind willreturn
declare void @llvm.lifetime.end.p0i8(i64 immarg, i8* nocapture) #1


!llvm.module.flags = !{!0, !1, !2, !3}
!llvm.ident = !{!4}

!0 = !{i32 1, !"wchar_size", i32 4}
!1 = !{i32 7, !"PIC Level", i32 2}
!2 = !{i32 7, !"PIE Level", i32 2}
!3 = !{i32 7, !"uwtable", i32 1}
!4 = !{!"clang version 13.0.0"}
!5 = !{!6, !6, i64 0}
!6 = !{!"omnipotent char", !7, i64 0}
!7 = !{!"Simple C/C++ TBAA"}
!8 = distinct !{!8, !9}
!9 = !{!"llvm.loop.mustprogress"}
